; Function Attrs: mustprogress nofree norecurse nosync nounwind memory(readwrite, inaccessiblemem: none) uwtable
define internal void @_ZN2cvL14mixChannels64sEPPKvPKiPPvS4_ii(ptr noundef readonly captures(none) %0, ptr noundef readonly captures(none) %1, ptr noundef readonly captures(none) %2, ptr noundef readonly captures(none) %3, i32 noundef %4, i32 noundef %5) #6 {
  %7 = icmp sgt i32 %5, 0
  br i1 %7, label %.lr.ph64.i, label %_ZN2cvL12mixChannels_IlEEvPPKT_PKiPPS1_S6_ii.exit

.lr.ph64.i:                                       ; preds = %6
  %8 = add i32 %4, -2
  %.not4749.i = icmp slt i32 %4, 2
  br i1 %.not4749.i, label %.lr.ph64.split.us.split.us.i, label %.lr.ph64.split.split.preheader.i

.lr.ph64.split.us.split.us.i:                     ; preds = %.lr.ph64.i
  %9 = icmp eq i32 %4, 1
  br i1 %9, label %.lr.ph64.split.us.split.us.split.us.split.us.preheader.i, label %_ZN2cvL12mixChannels_IlEEvPPKT_PKiPPS1_S6_ii.exit

.lr.ph64.split.us.split.us.split.us.split.us.preheader.i: ; preds = %.lr.ph64.split.us.split.us.i
  %wide.trip.count117.i = zext nneg i32 %5 to i64
  br label %.lr.ph64.split.us.split.us.split.us.split.us.i

.lr.ph64.split.us.split.us.split.us.split.us.i:   ; preds = %.preheader.us.us.us.us.i, %.lr.ph64.split.us.split.us.split.us.split.us.preheader.i
  %indvars.iv114.i = phi i64 [ 0, %.lr.ph64.split.us.split.us.split.us.split.us.preheader.i ], [ %indvars.iv.next115.i, %.preheader.us.us.us.us.i ]
  %10 = getelementptr inbounds nuw ptr, ptr %0, i64 %indvars.iv114.i
  %11 = load ptr, ptr %10, align 8, !tbaa !101
  %12 = getelementptr inbounds nuw ptr, ptr %2, i64 %indvars.iv114.i
  %13 = load ptr, ptr %12, align 8, !tbaa !101
  %.not.us.us.us.us.i = icmp eq ptr %11, null
  br i1 %.not.us.us.us.us.i, label %.preheader.us.us.us.us.i, label %.preheader48.us.us.us.us.i

.preheader.us.us.us.us.i:                         ; preds = %.preheader48.us.us.us.us.i, %.lr.ph64.split.us.split.us.split.us.split.us.i
  %storemerge.i = phi i64 [ %14, %.preheader48.us.us.us.us.i ], [ 0, %.lr.ph64.split.us.split.us.split.us.split.us.i ]
  store i64 %storemerge.i, ptr %13, align 8, !tbaa !102
  %indvars.iv.next115.i = add nuw nsw i64 %indvars.iv114.i, 1
  %exitcond118.not.i = icmp eq i64 %indvars.iv.next115.i, %wide.trip.count117.i
  br i1 %exitcond118.not.i, label %_ZN2cvL12mixChannels_IlEEvPPKT_PKiPPS1_S6_ii.exit, label %.lr.ph64.split.us.split.us.split.us.split.us.i, !llvm.loop !103

.preheader48.us.us.us.us.i:                       ; preds = %.lr.ph64.split.us.split.us.split.us.split.us.i
  %14 = load i64, ptr %11, align 8, !tbaa !102
  br label %.preheader.us.us.us.us.i

.lr.ph64.split.split.preheader.i:                 ; preds = %.lr.ph64.i
  %15 = and i32 %8, -2
  %16 = add nuw nsw i32 %15, 2
  %wide.trip.count.i = zext nneg i32 %5 to i64
  %17 = icmp samesign ult i32 %16, %4
  br i1 %17, label %.lr.ph64.split.split.i.us, label %.lr.ph64.split.split.i

.lr.ph64.split.split.i.us:                        ; preds = %.lr.ph64.split.split.preheader.i, %48
  %indvars.iv.i.us = phi i64 [ %indvars.iv.next.i.us, %48 ], [ 0, %.lr.ph64.split.split.preheader.i ]
  %18 = getelementptr inbounds nuw ptr, ptr %0, i64 %indvars.iv.i.us
  %19 = load ptr, ptr %18, align 8, !tbaa !101
  %20 = getelementptr inbounds nuw ptr, ptr %2, i64 %indvars.iv.i.us
  %21 = load ptr, ptr %20, align 8, !tbaa !101
  %22 = getelementptr inbounds nuw i32, ptr %3, i64 %indvars.iv.i.us
  %23 = load i32, ptr %22, align 4, !tbaa !30
  %.not.i.us = icmp eq ptr %19, null
  br i1 %.not.i.us, label %.preheader.i.us, label %.preheader48.i.us

.preheader48.i.us:                                ; preds = %.lr.ph64.split.split.i.us
  %24 = getelementptr inbounds nuw i32, ptr %1, i64 %indvars.iv.i.us
  %25 = load i32, ptr %24, align 4, !tbaa !30
  %26 = sext i32 %25 to i64
  %27 = sext i32 %23 to i64
  %28 = shl nsw i32 %25, 1
  %29 = sext i32 %28 to i64
  %30 = shl nsw i32 %23, 1
  %31 = sext i32 %30 to i64
  br label %32

32:                                               ; preds = %32, %.preheader48.i.us
  %.052.i.us = phi i32 [ 0, %.preheader48.i.us ], [ %37, %32 ]
  %.04251.i.us = phi ptr [ %19, %.preheader48.i.us ], [ %38, %32 ]
  %.04350.i.us = phi ptr [ %21, %.preheader48.i.us ], [ %39, %32 ]
  %33 = load i64, ptr %.04251.i.us, align 8, !tbaa !102
  %34 = getelementptr inbounds i64, ptr %.04251.i.us, i64 %26
  %35 = load i64, ptr %34, align 8, !tbaa !102
  store i64 %33, ptr %.04350.i.us, align 8, !tbaa !102
  %36 = getelementptr inbounds i64, ptr %.04350.i.us, i64 %27
  store i64 %35, ptr %36, align 8, !tbaa !102
  %37 = add nuw nsw i32 %.052.i.us, 2
  %38 = getelementptr inbounds i64, ptr %.04251.i.us, i64 %29
  %39 = getelementptr inbounds i64, ptr %.04350.i.us, i64 %31
  %.not47.i.us = icmp sgt i32 %37, %8
  br i1 %.not47.i.us, label %._crit_edge.i.us, label %32, !llvm.loop !104

._crit_edge.i.us:                                 ; preds = %32
  %40 = load i64, ptr %38, align 8, !tbaa !102
  store i64 %40, ptr %39, align 8, !tbaa !102
  br label %48

.preheader.i.us:                                  ; preds = %.lr.ph64.split.split.i.us
  %41 = sext i32 %23 to i64
  %42 = shl nsw i32 %23, 1
  %43 = sext i32 %42 to i64
  br label %44

44:                                               ; preds = %44, %.preheader.i.us
  %.157.i.us = phi i32 [ 0, %.preheader.i.us ], [ %46, %44 ]
  %.14456.i.us = phi ptr [ %21, %.preheader.i.us ], [ %47, %44 ]
  %45 = getelementptr inbounds i64, ptr %.14456.i.us, i64 %41
  store i64 0, ptr %45, align 8, !tbaa !102
  store i64 0, ptr %.14456.i.us, align 8, !tbaa !102
  %46 = add nuw nsw i32 %.157.i.us, 2
  %47 = getelementptr inbounds i64, ptr %.14456.i.us, i64 %43
  %.not46.i.us = icmp sgt i32 %46, %8
  br i1 %.not46.i.us, label %._crit_edge59.i.us, label %44, !llvm.loop !105

._crit_edge59.i.us:                               ; preds = %44
  store i64 0, ptr %47, align 8, !tbaa !102
  br label %48

48:                                               ; preds = %._crit_edge59.i.us, %._crit_edge.i.us
  %indvars.iv.next.i.us = add nuw nsw i64 %indvars.iv.i.us, 1
  %exitcond.not.i.us = icmp eq i64 %indvars.iv.next.i.us, %wide.trip.count.i
  br i1 %exitcond.not.i.us, label %_ZN2cvL12mixChannels_IlEEvPPKT_PKiPPS1_S6_ii.exit, label %.lr.ph64.split.split.i.us, !llvm.loop !103

.lr.ph64.split.split.i:                           ; preds = %.lr.ph64.split.split.preheader.i, %._crit_edge.i
  %indvars.iv.i = phi i64 [ %indvars.iv.next.i, %._crit_edge.i ], [ 0, %.lr.ph64.split.split.preheader.i ]
  %49 = getelementptr inbounds nuw ptr, ptr %0, i64 %indvars.iv.i
  %50 = load ptr, ptr %49, align 8, !tbaa !101
  %51 = getelementptr inbounds nuw ptr, ptr %2, i64 %indvars.iv.i
  %52 = load ptr, ptr %51, align 8, !tbaa !101
  %53 = getelementptr inbounds nuw i32, ptr %3, i64 %indvars.iv.i
  %54 = load i32, ptr %53, align 4, !tbaa !30
  %.not.i = icmp eq ptr %50, null
  br i1 %.not.i, label %.preheader.i, label %.preheader48.i

.preheader48.i:                                   ; preds = %.lr.ph64.split.split.i
  %55 = getelementptr inbounds nuw i32, ptr %1, i64 %indvars.iv.i
  %56 = load i32, ptr %55, align 4, !tbaa !30
  %57 = sext i32 %56 to i64
  %58 = sext i32 %54 to i64
  %59 = shl nsw i32 %56, 1
  %60 = sext i32 %59 to i64
  %61 = shl nsw i32 %54, 1
  %62 = sext i32 %61 to i64
  br label %66

.preheader.i:                                     ; preds = %.lr.ph64.split.split.i
  %63 = sext i32 %54 to i64
  %64 = shl nsw i32 %54, 1
  %65 = sext i32 %64 to i64
  br label %74

66:                                               ; preds = %66, %.preheader48.i
  %.052.i = phi i32 [ 0, %.preheader48.i ], [ %71, %66 ]
  %.04251.i = phi ptr [ %50, %.preheader48.i ], [ %72, %66 ]
  %.04350.i = phi ptr [ %52, %.preheader48.i ], [ %73, %66 ]
  %67 = load i64, ptr %.04251.i, align 8, !tbaa !102
  %68 = getelementptr inbounds i64, ptr %.04251.i, i64 %57
  %69 = load i64, ptr %68, align 8, !tbaa !102
  store i64 %67, ptr %.04350.i, align 8, !tbaa !102
  %70 = getelementptr inbounds i64, ptr %.04350.i, i64 %58
  store i64 %69, ptr %70, align 8, !tbaa !102
  %71 = add nuw nsw i32 %.052.i, 2
  %72 = getelementptr inbounds i64, ptr %.04251.i, i64 %60
  %73 = getelementptr inbounds i64, ptr %.04350.i, i64 %62
  %.not47.i = icmp sgt i32 %71, %8
  br i1 %.not47.i, label %._crit_edge.i, label %66, !llvm.loop !104

74:                                               ; preds = %74, %.preheader.i
  %.157.i = phi i32 [ 0, %.preheader.i ], [ %76, %74 ]
  %.14456.i = phi ptr [ %52, %.preheader.i ], [ %77, %74 ]
  %75 = getelementptr inbounds i64, ptr %.14456.i, i64 %63
  store i64 0, ptr %75, align 8, !tbaa !102
  store i64 0, ptr %.14456.i, align 8, !tbaa !102
  %76 = add nuw nsw i32 %.157.i, 2
  %77 = getelementptr inbounds i64, ptr %.14456.i, i64 %65
  %.not46.i = icmp sgt i32 %76, %8
  br i1 %.not46.i, label %._crit_edge.i, label %74, !llvm.loop !105

._crit_edge.i:                                    ; preds = %66, %74
  %indvars.iv.next.i = add nuw nsw i64 %indvars.iv.i, 1
  %exitcond.not.i = icmp eq i64 %indvars.iv.next.i, %wide.trip.count.i
  br i1 %exitcond.not.i, label %_ZN2cvL12mixChannels_IlEEvPPKT_PKiPPS1_S6_ii.exit, label %.lr.ph64.split.split.i, !llvm.loop !103

_ZN2cvL12mixChannels_IlEEvPPKT_PKiPPS1_S6_ii.exit: ; preds = %._crit_edge.i, %48, %.preheader.us.us.us.us.i, %6, %.lr.ph64.split.us.split.us.i
  ret void
}